target datalayout = "e-m:e-p270:32:32-p271:32:32-p272:64:64-i64:64-i128:128-f80:128-n8:16:32:64-S128"
target triple = "x86_64-pc-linux-gnu"

%class.Filter = type { ptr, %"class.std::bitset" }
%"class.std::bitset" = type { %"struct.std::_Base_bitset" }
%"struct.std::_Base_bitset" = type { i64 }
%"struct.std::_Rb_tree_header" = type { %"struct.std::_Rb_tree_node_base", i64 }
%"struct.std::_Rb_tree_node_base" = type { i32, ptr, ptr, ptr }
%"struct.std::_Rb_tree_key_compare.5" = type { %"struct.std::less.6" }
%"struct.std::less.6" = type { i8 }
%class.GroupProbElem = type { %class.ProbElem, i8, %"class.std::__cxx11::basic_string", %"class.std::map.26" }
%class.ProbElem = type { ptr }
%"class.std::__cxx11::basic_string" = type { %"struct.std::__cxx11::basic_string<char>::_Alloc_hider", i64, %union.anon }
%"struct.std::__cxx11::basic_string<char>::_Alloc_hider" = type { ptr }
%union.anon = type { i64, [8 x i8] }
%"class.std::map.26" = type { %"class.std::_Rb_tree.27" }
%"class.std::_Rb_tree.27" = type { %"struct.std::_Rb_tree<ProbName, std::pair<const ProbName, SingleProbElem *>, std::_Select1st<std::pair<const ProbName, SingleProbElem *>>, std::less<ProbName>>::_Rb_tree_impl" }
%"struct.std::_Rb_tree<ProbName, std::pair<const ProbName, SingleProbElem *>, std::_Select1st<std::pair<const ProbName, SingleProbElem *>>, std::less<ProbName>>::_Rb_tree_impl" = type { %"struct.std::_Rb_tree_key_compare.5", %"struct.std::_Rb_tree_header" }
%class.VectorFilter = type <{ %class.Filter, %"class.std::vector", ptr, i32, [4 x i8] }>
%"class.std::vector" = type { %"struct.std::_Vector_base" }
%"struct.std::_Vector_base" = type { %"struct.std::_Vector_base<unsigned int, std::allocator<unsigned int>>::_Vector_impl" }
%"struct.std::_Vector_base<unsigned int, std::allocator<unsigned int>>::_Vector_impl" = type { %"struct.std::_Vector_base<unsigned int, std::allocator<unsigned int>>::_Vector_impl_data" }
%"struct.std::_Vector_base<unsigned int, std::allocator<unsigned int>>::_Vector_impl_data" = type { ptr, ptr, ptr }

; Function Attrs: mustprogress uwtable
define dso_local noundef i32 @_ZN13GroupProbElem22get_random_single_probEiRSt6vectorIjSaIjEE(ptr noundef nonnull align 8 dereferenceable(96) %0, i32 noundef %1, ptr noundef nonnull align 8 dereferenceable(24) %2) #4 align 2 personality ptr @__gxx_personality_v0 {
  %4 = alloca i32, align 4
  %5 = alloca ptr, align 8
  %6 = alloca i32, align 4
  %7 = alloca ptr, align 8
  %8 = alloca i8, align 1
  %9 = alloca %class.VectorFilter, align 8
  %10 = alloca ptr, align 8
  %11 = alloca i32, align 4
  store ptr %0, ptr %5, align 8
  store i32 %1, ptr %6, align 4
  store ptr %2, ptr %7, align 8
  %12 = load ptr, ptr %5, align 8
  %13 = load i32, ptr %6, align 4
  %14 = icmp eq i32 %13, 0
  br i1 %14, label %15, label %17

15:                                               ; preds = %3
  %16 = load i32, ptr %6, align 4
  store i32 %16, ptr %4, align 4
  br label %35

17:                                               ; preds = %3
  %18 = getelementptr inbounds %class.GroupProbElem, ptr %12, i32 0, i32 1
  %19 = load i8, ptr %18, align 8
  %20 = trunc i8 %19 to i1
  br i1 %20, label %21, label %27

21:                                               ; preds = %17
  %22 = call noundef zeroext i1 @_Z12rnd_flipcoinjPK6FilterPKNSt7__cxx1112basic_stringIcSt11char_traitsIcESaIcEEE(i32 noundef 50, ptr noundef null, ptr noundef null)
  %23 = zext i1 %22 to i8
  store i8 %23, ptr %8, align 1
  %24 = load i8, ptr %8, align 1
  %25 = trunc i8 %24 to i1
  %26 = select i1 %25, i32 1, i32 0
  store i32 %26, ptr %4, align 4
  br label %35

27:                                               ; preds = %17
  %28 = load ptr, ptr %7, align 8
  call void @_ZN12VectorFilterC1ERSt6vectorIjSaIjEEi(ptr noundef nonnull align 8 dereferenceable(52) %9, ptr noundef nonnull align 8 dereferenceable(24) %28, i32 noundef 0)
  %29 = invoke noundef i32 @_Z8rnd_uptojPK6FilterPKNSt7__cxx1112basic_stringIcSt11char_traitsIcESaIcEEE(i32 noundef 101, ptr noundef %9, ptr noundef null)
          to label %30 unwind label %31

30:                                               ; preds = %27
  store i32 %29, ptr %4, align 4
  call void @_ZN12VectorFilterD1Ev(ptr noundef nonnull align 8 dereferenceable(52) %9) #3
  br label %35

31:                                               ; preds = %27
  %32 = landingpad { ptr, i32 }
          cleanup
  %33 = extractvalue { ptr, i32 } %32, 0
  store ptr %33, ptr %10, align 8
  %34 = extractvalue { ptr, i32 } %32, 1
  store i32 %34, ptr %11, align 4
  call void @_ZN12VectorFilterD1Ev(ptr noundef nonnull align 8 dereferenceable(52) %9) #3
  br label %37

35:                                               ; preds = %30, %21, %15
  %36 = load i32, ptr %4, align 4
  ret i32 %36

37:                                               ; preds = %31
  %38 = load ptr, ptr %10, align 8
  %39 = load i32, ptr %11, align 4
  %40 = insertvalue { ptr, i32 } poison, ptr %38, 0
  %41 = insertvalue { ptr, i32 } %40, i32 %39, 1
  resume { ptr, i32 } %41
}