; Function Attrs: mustprogress uwtable
define dso_local noundef i32 @_ZN13GroupProbElem22get_random_single_probEiRSt6vectorIjSaIjEE(ptr nocapture noundef nonnull readonly align 8 dereferenceable(96) %0, i32 noundef %1, ptr noundef nonnull align 8 dereferenceable(24) %2) local_unnamed_addr #3 align 2 personality ptr @__gxx_personality_v0 {
  %4 = alloca %class.VectorFilter, align 8
  %5 = icmp eq i32 %1, 0
  br i1 %5, label %18, label %6

6:                                                ; preds = %3
  %7 = getelementptr inbounds i8, ptr %0, i64 8
  %8 = load i8, ptr %7, align 8
  %9 = and i8 %8, 1
  %.not = icmp eq i8 %9, 0
  br i1 %.not, label %13, label %10

10:                                               ; preds = %6
  %11 = tail call noundef zeroext i1 @_Z12rnd_flipcoinjPK6FilterPKNSt7__cxx1112basic_stringIcSt11char_traitsIcESaIcEEE(i32 noundef 50, ptr noundef null, ptr noundef null)
  %12 = zext i1 %11 to i32
  br label %18

13:                                               ; preds = %6
  call void @_ZN12VectorFilterC1ERSt6vectorIjSaIjEEi(ptr noundef nonnull align 8 dereferenceable(52) %4, ptr noundef nonnull align 8 dereferenceable(24) %2, i32 noundef 0)
  %14 = invoke noundef i32 @_Z8rnd_uptojPK6FilterPKNSt7__cxx1112basic_stringIcSt11char_traitsIcESaIcEEE(i32 noundef 101, ptr noundef nonnull %4, ptr noundef null)
          to label %15 unwind label %16

15:                                               ; preds = %13
  call void @_ZN12VectorFilterD1Ev(ptr noundef nonnull align 8 dereferenceable(52) %4) #22
  br label %18

16:                                               ; preds = %13
  %17 = landingpad { ptr, i32 }
          cleanup
  call void @_ZN12VectorFilterD1Ev(ptr noundef nonnull align 8 dereferenceable(52) %4) #22
  resume { ptr, i32 } %17

18:                                               ; preds = %3, %15, %10
  %.0 = phi i32 [ %12, %10 ], [ %14, %15 ], [ 0, %3 ]
  ret i32 %.0
}